; ModuleID = '27/821.c'
source_filename = "27/821.c"
target datalayout = "e-m:e-p270:32:32-p271:32:32-p272:64:64-i64:64-f80:128-n8:16:32:64-S128"
target triple = "x86_64-pc-linux-gnu"

@.str = private unnamed_addr constant [4 x i8] c"%d\0A\00", align 1
@.str.1 = private unnamed_addr constant [11 x i8] c"%lf%lf%lf\0A\00", align 1
@.str.2 = private unnamed_addr constant [12 x i8] c"x1=x2=%.5f\0A\00", align 1
@.str.3 = private unnamed_addr constant [17 x i8] c"x1=%.5f;x2=%.5f\0A\00", align 1
@.str.4 = private unnamed_addr constant [29 x i8] c"x1=%.5f+%.5fi;x2=%.5f-%.5fi\0A\00", align 1
@.str.5 = private unnamed_addr constant [35 x i8] c"x1=0.00000+%.5fi;x2=0.00000-%.5fi\0A\00", align 1

; Function Attrs: noinline nounwind uwtable
define dso_local i32 @main() #0 {
  %1 = alloca i32, align 4
  %2 = alloca i32, align 4
  %3 = alloca i32, align 4
  %4 = alloca double, align 8
  %5 = alloca double, align 8
  %6 = alloca double, align 8
  %7 = alloca double, align 8
  %8 = alloca double, align 8
  %9 = alloca double, align 8
  %10 = alloca double, align 8
  store i32 0, i32* %1, align 4
  %11 = call i32 (i8*, ...) @__isoc99_scanf(i8* getelementptr inbounds ([4 x i8], [4 x i8]* @.str, i64 0, i64 0), i32* %2)
  store i32 1, i32* %3, align 4
  br label %12

12:                                               ; preds = %134, %0
  %13 = load i32, i32* %3, align 4
  %14 = load i32, i32* %2, align 4
  %15 = icmp sle i32 %13, %14
  br i1 %15, label %16, label %137

16:                                               ; preds = %12
  %17 = call i32 (i8*, ...) @__isoc99_scanf(i8* getelementptr inbounds ([11 x i8], [11 x i8]* @.str.1, i64 0, i64 0), double* %4, double* %5, double* %6)
  %18 = load double, double* %5, align 8
  %19 = load double, double* %5, align 8
  %20 = fmul double %18, %19
  %21 = load double, double* %4, align 8
  %22 = fmul double 4.000000e+00, %21
  %23 = load double, double* %6, align 8
  %24 = fmul double %22, %23
  %25 = fsub double %20, %24
  %26 = fcmp oeq double %25, 0.000000e+00
  br i1 %26, label %27, label %45

27:                                               ; preds = %16
  %28 = load double, double* %5, align 8
  %29 = fneg double %28
  %30 = load double, double* %5, align 8
  %31 = load double, double* %5, align 8
  %32 = fmul double %30, %31
  %33 = load double, double* %4, align 8
  %34 = fmul double 4.000000e+00, %33
  %35 = load double, double* %6, align 8
  %36 = fmul double %34, %35
  %37 = fsub double %32, %36
  %38 = call double @sqrt(double %37) #3
  %39 = fadd double %29, %38
  %40 = load double, double* %4, align 8
  %41 = fmul double 2.000000e+00, %40
  %42 = fdiv double %39, %41
  store double %42, double* %7, align 8
  %43 = load double, double* %7, align 8
  %44 = call i32 (i8*, ...) @printf(i8* getelementptr inbounds ([12 x i8], [12 x i8]* @.str.2, i64 0, i64 0), double %43)
  br label %45

45:                                               ; preds = %27, %16
  %46 = load double, double* %5, align 8
  %47 = load double, double* %5, align 8
  %48 = fmul double %46, %47
  %49 = load double, double* %4, align 8
  %50 = fmul double 4.000000e+00, %49
  %51 = load double, double* %6, align 8
  %52 = fmul double %50, %51
  %53 = fsub double %48, %52
  %54 = fcmp ogt double %53, 0.000000e+00
  br i1 %54, label %55, label %89

55:                                               ; preds = %45
  %56 = load double, double* %5, align 8
  %57 = fneg double %56
  %58 = load double, double* %5, align 8
  %59 = load double, double* %5, align 8
  %60 = fmul double %58, %59
  %61 = load double, double* %4, align 8
  %62 = fmul double 4.000000e+00, %61
  %63 = load double, double* %6, align 8
  %64 = fmul double %62, %63
  %65 = fsub double %60, %64
  %66 = call double @sqrt(double %65) #3
  %67 = fadd double %57, %66
  %68 = load double, double* %4, align 8
  %69 = fmul double 2.000000e+00, %68
  %70 = fdiv double %67, %69
  store double %70, double* %7, align 8
  %71 = load double, double* %5, align 8
  %72 = fneg double %71
  %73 = load double, double* %5, align 8
  %74 = load double, double* %5, align 8
  %75 = fmul double %73, %74
  %76 = load double, double* %4, align 8
  %77 = fmul double 4.000000e+00, %76
  %78 = load double, double* %6, align 8
  %79 = fmul double %77, %78
  %80 = fsub double %75, %79
  %81 = call double @sqrt(double %80) #3
  %82 = fsub double %72, %81
  %83 = load double, double* %4, align 8
  %84 = fmul double 2.000000e+00, %83
  %85 = fdiv double %82, %84
  store double %85, double* %8, align 8
  %86 = load double, double* %7, align 8
  %87 = load double, double* %8, align 8
  %88 = call i32 (i8*, ...) @printf(i8* getelementptr inbounds ([17 x i8], [17 x i8]* @.str.3, i64 0, i64 0), double %86, double %87)
  br label %89

89:                                               ; preds = %55, %45
  %90 = load double, double* %5, align 8
  %91 = load double, double* %5, align 8
  %92 = fmul double %90, %91
  %93 = load double, double* %4, align 8
  %94 = fmul double 4.000000e+00, %93
  %95 = load double, double* %6, align 8
  %96 = fmul double %94, %95
  %97 = fsub double %92, %96
  %98 = fcmp olt double %97, 0.000000e+00
  br i1 %98, label %99, label %133

99:                                               ; preds = %89
  %100 = load double, double* %4, align 8
  %101 = fmul double 4.000000e+00, %100
  %102 = load double, double* %6, align 8
  %103 = fmul double %101, %102
  %104 = load double, double* %5, align 8
  %105 = load double, double* %5, align 8
  %106 = fmul double %104, %105
  %107 = fsub double %103, %106
  %108 = call double @sqrt(double %107) #3
  %109 = load double, double* %4, align 8
  %110 = fmul double 2.000000e+00, %109
  %111 = fdiv double %108, %110
  store double %111, double* %9, align 8
  %112 = load double, double* %5, align 8
  %113 = fmul double -1.000000e+00, %112
  %114 = load double, double* %4, align 8
  %115 = fmul double 2.000000e+00, %114
  %116 = fdiv double %113, %115
  store double %116, double* %10, align 8
  %117 = load double, double* %10, align 8
  %118 = fcmp une double %117, 0.000000e+00
  br i1 %118, label %119, label %125

119:                                              ; preds = %99
  %120 = load double, double* %10, align 8
  %121 = load double, double* %9, align 8
  %122 = load double, double* %10, align 8
  %123 = load double, double* %9, align 8
  %124 = call i32 (i8*, ...) @printf(i8* getelementptr inbounds ([29 x i8], [29 x i8]* @.str.4, i64 0, i64 0), double %120, double %121, double %122, double %123)
  br label %125

125:                                              ; preds = %119, %99
  %126 = load double, double* %10, align 8
  %127 = fcmp oeq double %126, 0.000000e+00
  br i1 %127, label %128, label %132

128:                                              ; preds = %125
  %129 = load double, double* %9, align 8
  %130 = load double, double* %9, align 8
  %131 = call i32 (i8*, ...) @printf(i8* getelementptr inbounds ([35 x i8], [35 x i8]* @.str.5, i64 0, i64 0), double %129, double %130)
  br label %132

132:                                              ; preds = %128, %125
  br label %133

133:                                              ; preds = %132, %89
  br label %134

134:                                              ; preds = %133
  %135 = load i32, i32* %3, align 4
  %136 = add nsw i32 %135, 1
  store i32 %136, i32* %3, align 4
  br label %12

137:                                              ; preds = %12
  %138 = load i32, i32* %1, align 4
  ret i32 %138
}

declare dso_local i32 @__isoc99_scanf(i8*, ...) #1

; Function Attrs: nounwind
declare dso_local double @sqrt(double) #2

declare dso_local i32 @printf(i8*, ...) #1


!llvm.module.flags = !{!0}
!llvm.ident = !{!1}

!0 = !{i32 1, !"wchar_size", i32 4}
!1 = !{!"clang version 10.0.0-4ubuntu1 "}
