; ModuleID = 'source-C-CXX/26/821.c'
source_filename = "source-C-CXX/26/821.c"
target datalayout = "e-m:e-p270:32:32-p271:32:32-p272:64:64-i64:64-f80:128-n8:16:32:64-S128"
target triple = "x86_64-pc-linux-gnu"

@.str = private unnamed_addr constant [4 x i8] c"%d\0A\00", align 1
@.str.1 = private unnamed_addr constant [11 x i8] c"%lf%lf%lf\0A\00", align 1
@.str.2 = private unnamed_addr constant [12 x i8] c"x1=x2=%.5f\0A\00", align 1
@.str.3 = private unnamed_addr constant [17 x i8] c"x1=%.5f;x2=%.5f\0A\00", align 1
@.str.4 = private unnamed_addr constant [29 x i8] c"x1=%.5f+%.5fi;x2=%.5f-%.5fi\0A\00", align 1
@.str.5 = private unnamed_addr constant [35 x i8] c"x1=0.00000+%.5fi;x2=0.00000-%.5fi\0A\00", align 1

; Function Attrs: nofree nounwind sspstrong uwtable
define dso_local i32 @main() local_unnamed_addr #0 {
  %1 = alloca i32, align 4
  %2 = alloca double, align 8
  %3 = alloca double, align 8
  %4 = alloca double, align 8
  %5 = bitcast i32* %1 to i8*
  call void @llvm.lifetime.start.p0i8(i64 4, i8* nonnull %5) #4
  %6 = bitcast double* %2 to i8*
  call void @llvm.lifetime.start.p0i8(i64 8, i8* nonnull %6) #4
  %7 = bitcast double* %3 to i8*
  call void @llvm.lifetime.start.p0i8(i64 8, i8* nonnull %7) #4
  %8 = bitcast double* %4 to i8*
  call void @llvm.lifetime.start.p0i8(i64 8, i8* nonnull %8) #4
  %9 = call i32 (i8*, ...) @__isoc99_scanf(i8* getelementptr inbounds ([4 x i8], [4 x i8]* @.str, i64 0, i64 0), i32* nonnull %1)
  %10 = load i32, i32* %1, align 4, !tbaa !5
  %11 = icmp slt i32 %10, 1
  br i1 %11, label %94, label %12

12:                                               ; preds = %0, %90
  %13 = phi i32 [ %91, %90 ], [ 1, %0 ]
  %14 = call i32 (i8*, ...) @__isoc99_scanf(i8* getelementptr inbounds ([11 x i8], [11 x i8]* @.str.1, i64 0, i64 0), double* nonnull %2, double* nonnull %3, double* nonnull %4)
  %15 = load double, double* %3, align 8, !tbaa !9
  %16 = fmul double %15, %15
  %17 = load double, double* %2, align 8, !tbaa !9
  %18 = fmul double %17, 4.000000e+00
  %19 = load double, double* %4, align 8, !tbaa !9
  %20 = fmul double %18, %19
  %21 = fsub double %16, %20
  %22 = fcmp oeq double %21, 0.000000e+00
  br i1 %22, label %23, label %37

23:                                               ; preds = %12
  %24 = call double @sqrt(double %21) #4
  %25 = fsub double %24, %15
  %26 = load double, double* %2, align 8, !tbaa !9
  %27 = fmul double %26, 2.000000e+00
  %28 = fdiv double %25, %27
  %29 = call i32 (i8*, ...) @printf(i8* nonnull dereferenceable(1) getelementptr inbounds ([12 x i8], [12 x i8]* @.str.2, i64 0, i64 0), double %28)
  %30 = load double, double* %3, align 8, !tbaa !9
  %31 = load double, double* %2, align 8, !tbaa !9
  %32 = load double, double* %4, align 8, !tbaa !9
  %33 = fmul double %30, %30
  %34 = fmul double %31, 4.000000e+00
  %35 = fmul double %34, %32
  %36 = fsub double %33, %35
  br label %37

37:                                               ; preds = %23, %12
  %38 = phi double [ %36, %23 ], [ %21, %12 ]
  %39 = phi double [ %35, %23 ], [ %20, %12 ]
  %40 = phi double [ %33, %23 ], [ %16, %12 ]
  %41 = phi double [ %30, %23 ], [ %15, %12 ]
  %42 = fcmp ogt double %38, 0.000000e+00
  br i1 %42, label %43, label %69

43:                                               ; preds = %37
  %44 = call double @sqrt(double %38) #4
  %45 = fsub double %44, %41
  %46 = load double, double* %2, align 8, !tbaa !9
  %47 = fmul double %46, 2.000000e+00
  %48 = fdiv double %45, %47
  %49 = load double, double* %3, align 8, !tbaa !9
  %50 = fneg double %49
  %51 = fmul double %49, %49
  %52 = fmul double %46, 4.000000e+00
  %53 = load double, double* %4, align 8, !tbaa !9
  %54 = fmul double %52, %53
  %55 = fsub double %51, %54
  %56 = call double @sqrt(double %55) #4
  %57 = fsub double %50, %56
  %58 = load double, double* %2, align 8, !tbaa !9
  %59 = fmul double %58, 2.000000e+00
  %60 = fdiv double %57, %59
  %61 = call i32 (i8*, ...) @printf(i8* nonnull dereferenceable(1) getelementptr inbounds ([17 x i8], [17 x i8]* @.str.3, i64 0, i64 0), double %48, double %60)
  %62 = load double, double* %3, align 8, !tbaa !9
  %63 = load double, double* %2, align 8, !tbaa !9
  %64 = load double, double* %4, align 8, !tbaa !9
  %65 = fmul double %62, %62
  %66 = fmul double %63, 4.000000e+00
  %67 = fmul double %66, %64
  %68 = fsub double %65, %67
  br label %69

69:                                               ; preds = %43, %37
  %70 = phi double [ %68, %43 ], [ %38, %37 ]
  %71 = phi double [ %67, %43 ], [ %39, %37 ]
  %72 = phi double [ %65, %43 ], [ %40, %37 ]
  %73 = fcmp olt double %70, 0.000000e+00
  br i1 %73, label %74, label %90

74:                                               ; preds = %69
  %75 = fsub double %71, %72
  %76 = call double @sqrt(double %75) #4
  %77 = load double, double* %2, align 8, !tbaa !9
  %78 = fmul double %77, 2.000000e+00
  %79 = fdiv double %76, %78
  %80 = load double, double* %3, align 8, !tbaa !9
  %81 = fneg double %80
  %82 = fdiv double %81, %78
  %83 = fcmp une double %82, 0.000000e+00
  br i1 %83, label %84, label %86

84:                                               ; preds = %74
  %85 = call i32 (i8*, ...) @printf(i8* nonnull dereferenceable(1) getelementptr inbounds ([29 x i8], [29 x i8]* @.str.4, i64 0, i64 0), double %82, double %79, double %82, double %79)
  br label %86

86:                                               ; preds = %84, %74
  %87 = fcmp oeq double %82, 0.000000e+00
  br i1 %87, label %88, label %90

88:                                               ; preds = %86
  %89 = call i32 (i8*, ...) @printf(i8* nonnull dereferenceable(1) getelementptr inbounds ([35 x i8], [35 x i8]* @.str.5, i64 0, i64 0), double %79, double %79)
  br label %90

90:                                               ; preds = %69, %88, %86
  %91 = add nuw nsw i32 %13, 1
  %92 = load i32, i32* %1, align 4, !tbaa !5
  %93 = icmp slt i32 %13, %92
  br i1 %93, label %12, label %94, !llvm.loop !11

94:                                               ; preds = %90, %0
  call void @llvm.lifetime.end.p0i8(i64 8, i8* nonnull %8) #4
  call void @llvm.lifetime.end.p0i8(i64 8, i8* nonnull %7) #4
  call void @llvm.lifetime.end.p0i8(i64 8, i8* nonnull %6) #4
  call void @llvm.lifetime.end.p0i8(i64 4, i8* nonnull %5) #4
  ret i32 0
}

; Function Attrs: argmemonly mustprogress nofree nosync nounwind willreturn
declare void @llvm.lifetime.start.p0i8(i64 immarg, i8* nocapture) #1

; Function Attrs: nofree nounwind
declare noundef i32 @__isoc99_scanf(i8* nocapture noundef readonly, ...) local_unnamed_addr #2

; Function Attrs: mustprogress nofree nounwind willreturn
declare double @sqrt(double) local_unnamed_addr #3

; Function Attrs: nofree nounwind
declare noundef i32 @printf(i8* nocapture noundef readonly, ...) local_unnamed_addr #2

; Function Attrs: argmemonly mustprogress nofree nosync nounwind willreturn
declare void @llvm.lifetime.end.p0i8(i64 immarg, i8* nocapture) #1


!llvm.module.flags = !{!0, !1, !2, !3}
!llvm.ident = !{!4}

!0 = !{i32 1, !"wchar_size", i32 4}
!1 = !{i32 7, !"PIC Level", i32 2}
!2 = !{i32 7, !"PIE Level", i32 2}
!3 = !{i32 7, !"uwtable", i32 1}
!4 = !{!"clang version 13.0.0"}
!5 = !{!6, !6, i64 0}
!6 = !{!"int", !7, i64 0}
!7 = !{!"omnipotent char", !8, i64 0}
!8 = !{!"Simple C/C++ TBAA"}
!9 = !{!10, !10, i64 0}
!10 = !{!"double", !7, i64 0}
!11 = distinct !{!11, !12}
!12 = !{!"llvm.loop.mustprogress"}
